target datalayout = "e-m:e-p270:32:32-p271:32:32-p272:64:64-i64:64-i128:128-f80:128-n8:16:32:64-S128"
target triple = "x86_64-unknown-linux-gnu"

; Function Attrs: nounwind sspstrong uwtable
define internal void @stw_he_p(ptr noundef %ptr, i16 noundef zeroext %v) #0 {
entry:
  %ptr.addr = alloca ptr, align 8
  %v.addr = alloca i16, align 2
  store ptr %ptr, ptr %ptr.addr, align 8
  store i16 %v, ptr %v.addr, align 2
  %0 = load ptr, ptr %ptr.addr, align 8
  call void @llvm.memcpy.p0.p0.i64(ptr align 1 %0, ptr align 2 %v.addr, i64 2, i1 false)
  ret void
}

; Function Attrs: nounwind sspstrong uwtable
define internal void @stl_he_p(ptr noundef %ptr, i32 noundef %v) #0 {
entry:
  %ptr.addr = alloca ptr, align 8
  %v.addr = alloca i32, align 4
  store ptr %ptr, ptr %ptr.addr, align 8
  store i32 %v, ptr %v.addr, align 4
  %0 = load ptr, ptr %ptr.addr, align 8
  call void @llvm.memcpy.p0.p0.i64(ptr align 1 %0, ptr align 4 %v.addr, i64 4, i1 false)
  ret void
}

; Function Attrs: nounwind sspstrong uwtable
define internal void @stw_be_p(ptr noundef %ptr, i16 noundef zeroext %v) #0 {
entry:
  %ptr.addr = alloca ptr, align 8
  %v.addr = alloca i16, align 2
  store ptr %ptr, ptr %ptr.addr, align 8
  store i16 %v, ptr %v.addr, align 2
  %0 = load ptr, ptr %ptr.addr, align 8
  %1 = load i16, ptr %v.addr, align 2
  %2 = call i16 @llvm.bswap.i16(i16 %1)
  call void @stw_he_p(ptr noundef %0, i16 noundef zeroext %2)
  ret void
}

; Function Attrs: nounwind sspstrong uwtable
define internal void @stl_be_p(ptr noundef %ptr, i32 noundef %v) #0 {
entry:
  %ptr.addr = alloca ptr, align 8
  %v.addr = alloca i32, align 4
  store ptr %ptr, ptr %ptr.addr, align 8
  store i32 %v, ptr %v.addr, align 4
  %0 = load ptr, ptr %ptr.addr, align 8
  %1 = load i32, ptr %v.addr, align 4
  %2 = call i32 @llvm.bswap.i32(i32 %1)
  call void @stl_he_p(ptr noundef %0, i32 noundef %2)
  ret void
}

; Function Attrs: nounwind sspstrong uwtable
define internal void @lba_to_msf(ptr noundef %buf, i32 noundef %lba) #0 {
entry:
  %buf.addr = alloca ptr, align 8
  %lba.addr = alloca i32, align 4
  store ptr %buf, ptr %buf.addr, align 8
  store i32 %lba, ptr %lba.addr, align 4
  %0 = load i32, ptr %lba.addr, align 4
  %add = add i32 %0, 150
  store i32 %add, ptr %lba.addr, align 4
  %1 = load i32, ptr %lba.addr, align 4
  %div = sdiv i32 %1, 75
  %div1 = sdiv i32 %div, 60
  %conv = trunc i32 %div1 to i8
  %2 = load ptr, ptr %buf.addr, align 8
  %arrayidx = getelementptr i8, ptr %2, i64 0
  store i8 %conv, ptr %arrayidx, align 1
  %3 = load i32, ptr %lba.addr, align 4
  %div2 = sdiv i32 %3, 75
  %rem = srem i32 %div2, 60
  %conv3 = trunc i32 %rem to i8
  %4 = load ptr, ptr %buf.addr, align 8
  %arrayidx4 = getelementptr i8, ptr %4, i64 1
  store i8 %conv3, ptr %arrayidx4, align 1
  %5 = load i32, ptr %lba.addr, align 4
  %rem5 = srem i32 %5, 75
  %conv6 = trunc i32 %rem5 to i8
  %6 = load ptr, ptr %buf.addr, align 8
  %arrayidx7 = getelementptr i8, ptr %6, i64 2
  store i8 %conv6, ptr %arrayidx7, align 1
  ret void
}

; Function Attrs: nounwind sspstrong uwtable
define dso_local i32 @cdrom_read_toc(i32 noundef %nb_sectors, ptr noundef %buf, i32 noundef %msf, i32 noundef %start_track) #0 {
entry:
  %retval = alloca i32, align 4
  %nb_sectors.addr = alloca i32, align 4
  %buf.addr = alloca ptr, align 8
  %msf.addr = alloca i32, align 4
  %start_track.addr = alloca i32, align 4
  %q = alloca ptr, align 8
  %len = alloca i32, align 4
  store i32 %nb_sectors, ptr %nb_sectors.addr, align 4
  store ptr %buf, ptr %buf.addr, align 8
  store i32 %msf, ptr %msf.addr, align 4
  store i32 %start_track, ptr %start_track.addr, align 4
  %0 = load i32, ptr %start_track.addr, align 4
  %cmp = icmp sgt i32 %0, 1
  br i1 %cmp, label %land.lhs.true, label %if.end

land.lhs.true:                                    ; preds = %entry
  %1 = load i32, ptr %start_track.addr, align 4
  %cmp1 = icmp ne i32 %1, 170
  br i1 %cmp1, label %if.then, label %if.end

if.then:                                          ; preds = %land.lhs.true
  store i32 -1, ptr %retval, align 4
  br label %return

if.end:                                           ; preds = %land.lhs.true, %entry
  %2 = load ptr, ptr %buf.addr, align 8
  %add.ptr = getelementptr i8, ptr %2, i64 2
  store ptr %add.ptr, ptr %q, align 8
  %3 = load ptr, ptr %q, align 8
  %incdec.ptr = getelementptr i8, ptr %3, i32 1
  store ptr %incdec.ptr, ptr %q, align 8
  store i8 1, ptr %3, align 1
  %4 = load ptr, ptr %q, align 8
  %incdec.ptr2 = getelementptr i8, ptr %4, i32 1
  store ptr %incdec.ptr2, ptr %q, align 8
  store i8 1, ptr %4, align 1
  %5 = load i32, ptr %start_track.addr, align 4
  %cmp3 = icmp sle i32 %5, 1
  br i1 %cmp3, label %if.then4, label %if.end14

if.then4:                                         ; preds = %if.end
  %6 = load ptr, ptr %q, align 8
  %incdec.ptr5 = getelementptr i8, ptr %6, i32 1
  store ptr %incdec.ptr5, ptr %q, align 8
  store i8 0, ptr %6, align 1
  %7 = load ptr, ptr %q, align 8
  %incdec.ptr6 = getelementptr i8, ptr %7, i32 1
  store ptr %incdec.ptr6, ptr %q, align 8
  store i8 20, ptr %7, align 1
  %8 = load ptr, ptr %q, align 8
  %incdec.ptr7 = getelementptr i8, ptr %8, i32 1
  store ptr %incdec.ptr7, ptr %q, align 8
  store i8 1, ptr %8, align 1
  %9 = load ptr, ptr %q, align 8
  %incdec.ptr8 = getelementptr i8, ptr %9, i32 1
  store ptr %incdec.ptr8, ptr %q, align 8
  store i8 0, ptr %9, align 1
  %10 = load i32, ptr %msf.addr, align 4
  %tobool = icmp ne i32 %10, 0
  br i1 %tobool, label %if.then9, label %if.else

if.then9:                                         ; preds = %if.then4
  %11 = load ptr, ptr %q, align 8
  %incdec.ptr10 = getelementptr i8, ptr %11, i32 1
  store ptr %incdec.ptr10, ptr %q, align 8
  store i8 0, ptr %11, align 1
  %12 = load ptr, ptr %q, align 8
  call void @lba_to_msf(ptr noundef %12, i32 noundef 0)
  %13 = load ptr, ptr %q, align 8
  %add.ptr11 = getelementptr i8, ptr %13, i64 3
  store ptr %add.ptr11, ptr %q, align 8
  br label %if.end13

if.else:                                          ; preds = %if.then4
  %14 = load ptr, ptr %q, align 8
  call void @stl_be_p(ptr noundef %14, i32 noundef 0)
  %15 = load ptr, ptr %q, align 8
  %add.ptr12 = getelementptr i8, ptr %15, i64 4
  store ptr %add.ptr12, ptr %q, align 8
  br label %if.end13

if.end13:                                         ; preds = %if.else, %if.then9
  br label %if.end14

if.end14:                                         ; preds = %if.end13, %if.end
  %16 = load ptr, ptr %q, align 8
  %incdec.ptr15 = getelementptr i8, ptr %16, i32 1
  store ptr %incdec.ptr15, ptr %q, align 8
  store i8 0, ptr %16, align 1
  %17 = load ptr, ptr %q, align 8
  %incdec.ptr16 = getelementptr i8, ptr %17, i32 1
  store ptr %incdec.ptr16, ptr %q, align 8
  store i8 22, ptr %17, align 1
  %18 = load ptr, ptr %q, align 8
  %incdec.ptr17 = getelementptr i8, ptr %18, i32 1
  store ptr %incdec.ptr17, ptr %q, align 8
  store i8 -86, ptr %18, align 1
  %19 = load ptr, ptr %q, align 8
  %incdec.ptr18 = getelementptr i8, ptr %19, i32 1
  store ptr %incdec.ptr18, ptr %q, align 8
  store i8 0, ptr %19, align 1
  %20 = load i32, ptr %msf.addr, align 4
  %tobool19 = icmp ne i32 %20, 0
  br i1 %tobool19, label %if.then20, label %if.else23

if.then20:                                        ; preds = %if.end14
  %21 = load ptr, ptr %q, align 8
  %incdec.ptr21 = getelementptr i8, ptr %21, i32 1
  store ptr %incdec.ptr21, ptr %q, align 8
  store i8 0, ptr %21, align 1
  %22 = load ptr, ptr %q, align 8
  %23 = load i32, ptr %nb_sectors.addr, align 4
  call void @lba_to_msf(ptr noundef %22, i32 noundef %23)
  %24 = load ptr, ptr %q, align 8
  %add.ptr22 = getelementptr i8, ptr %24, i64 3
  store ptr %add.ptr22, ptr %q, align 8
  br label %if.end25

if.else23:                                        ; preds = %if.end14
  %25 = load ptr, ptr %q, align 8
  %26 = load i32, ptr %nb_sectors.addr, align 4
  call void @stl_be_p(ptr noundef %25, i32 noundef %26)
  %27 = load ptr, ptr %q, align 8
  %add.ptr24 = getelementptr i8, ptr %27, i64 4
  store ptr %add.ptr24, ptr %q, align 8
  br label %if.end25

if.end25:                                         ; preds = %if.else23, %if.then20
  %28 = load ptr, ptr %q, align 8
  %29 = load ptr, ptr %buf.addr, align 8
  %sub.ptr.lhs.cast = ptrtoint ptr %28 to i64
  %sub.ptr.rhs.cast = ptrtoint ptr %29 to i64
  %sub.ptr.sub = sub i64 %sub.ptr.lhs.cast, %sub.ptr.rhs.cast
  %conv = trunc i64 %sub.ptr.sub to i32
  store i32 %conv, ptr %len, align 4
  %30 = load ptr, ptr %buf.addr, align 8
  %31 = load i32, ptr %len, align 4
  %sub = sub i32 %31, 2
  %conv26 = trunc i32 %sub to i16
  call void @stw_be_p(ptr noundef %30, i16 noundef zeroext %conv26)
  %32 = load i32, ptr %len, align 4
  store i32 %32, ptr %retval, align 4
  br label %return

return:                                           ; preds = %if.end25, %if.then
  %33 = load i32, ptr %retval, align 4
  ret i32 %33
}